target datalayout = "e-m:e-p270:32:32-p271:32:32-p272:64:64-i64:64-i128:128-f80:128-n8:16:32:64-S128"
target triple = "x86_64-pc-linux-gnu"

%"class.cv::utils::trace::details::Region" = type <{ ptr, i32, [4 x i8] }>
%"struct.cv::hal::cpu_baseline::(anonymous namespace)::RGB2HLS_f" = type { i32, i32, float }
%"class.cv::Range" = type { i32, i32 }
%"class.cv::ParallelLoopBody" = type { ptr }
%"class.cv::impl::(anonymous namespace)::CvtColorLoop_Invoker.3" = type { %"class.cv::ParallelLoopBody", ptr, i64, ptr, i64, i32, ptr }

; Function Attrs: mustprogress uwtable
define internal void @_ZNK2cv3hal12cpu_baseline12_GLOBAL__N_19RGB2HLS_fclEPKfPfi(ptr noundef nonnull align 4 dereferenceable(12) %0, ptr noundef %1, ptr noundef %2, i32 noundef %3) #0 align 2 {
  %5 = alloca ptr, align 8
  %6 = alloca ptr, align 8
  %7 = alloca ptr, align 8
  %8 = alloca i32, align 4
  %9 = alloca %"class.cv::utils::trace::details::Region", align 8
  %10 = alloca i32, align 4
  %11 = alloca i32, align 4
  %12 = alloca i32, align 4
  %13 = alloca float, align 4
  %14 = alloca float, align 4
  %15 = alloca float, align 4
  %16 = alloca float, align 4
  %17 = alloca float, align 4
  %18 = alloca float, align 4
  %19 = alloca float, align 4
  %20 = alloca float, align 4
  %21 = alloca float, align 4
  store ptr %0, ptr %5, align 8
  store ptr %1, ptr %6, align 8
  store ptr %2, ptr %7, align 8
  store i32 %3, ptr %8, align 4
  %22 = load ptr, ptr %5, align 8
  call void @_ZN2cv5utils5trace7details6RegionC1ERKNS3_21LocationStaticStorageE(ptr noundef nonnull align 8 dereferenceable(12) %9, ptr noundef nonnull align 8 dereferenceable(32) @_ZZNK2cv3hal12cpu_baseline12_GLOBAL__N_19RGB2HLS_fclEPKfPfiE25__cv_trace_location_fn717)
  store i32 0, ptr %10, align 4
  %23 = getelementptr inbounds %"struct.cv::hal::cpu_baseline::(anonymous namespace)::RGB2HLS_f", ptr %22, i32 0, i32 1
  %24 = load i32, ptr %23, align 4
  store i32 %24, ptr %11, align 4
  %25 = getelementptr inbounds %"struct.cv::hal::cpu_baseline::(anonymous namespace)::RGB2HLS_f", ptr %22, i32 0, i32 0
  %26 = load i32, ptr %25, align 4
  store i32 %26, ptr %12, align 4
  br label %27

27:                                               ; preds = %146, %4
  %28 = load i32, ptr %10, align 4
  %29 = load i32, ptr %8, align 4
  %30 = icmp slt i32 %28, %29
  br i1 %30, label %31, label %155

31:                                               ; preds = %27
  %32 = load ptr, ptr %6, align 8
  %33 = load i32, ptr %11, align 4
  %34 = sext i32 %33 to i64
  %35 = getelementptr inbounds float, ptr %32, i64 %34
  %36 = load float, ptr %35, align 4
  store float %36, ptr %13, align 4
  %37 = load ptr, ptr %6, align 8
  %38 = getelementptr inbounds float, ptr %37, i64 1
  %39 = load float, ptr %38, align 4
  store float %39, ptr %14, align 4
  %40 = load ptr, ptr %6, align 8
  %41 = load i32, ptr %11, align 4
  %42 = xor i32 %41, 2
  %43 = sext i32 %42 to i64
  %44 = getelementptr inbounds float, ptr %40, i64 %43
  %45 = load float, ptr %44, align 4
  store float %45, ptr %15, align 4
  store float 0.000000e+00, ptr %16, align 4
  store float 0.000000e+00, ptr %17, align 4
  %46 = load float, ptr %15, align 4
  store float %46, ptr %19, align 4
  store float %46, ptr %20, align 4
  %47 = load float, ptr %20, align 4
  %48 = load float, ptr %14, align 4
  %49 = fcmp olt float %47, %48
  br i1 %49, label %50, label %52

50:                                               ; preds = %31
  %51 = load float, ptr %14, align 4
  store float %51, ptr %20, align 4
  br label %52

52:                                               ; preds = %50, %31
  %53 = load float, ptr %20, align 4
  %54 = load float, ptr %13, align 4
  %55 = fcmp olt float %53, %54
  br i1 %55, label %56, label %58

56:                                               ; preds = %52
  %57 = load float, ptr %13, align 4
  store float %57, ptr %20, align 4
  br label %58

58:                                               ; preds = %56, %52
  %59 = load float, ptr %19, align 4
  %60 = load float, ptr %14, align 4
  %61 = fcmp ogt float %59, %60
  br i1 %61, label %62, label %64

62:                                               ; preds = %58
  %63 = load float, ptr %14, align 4
  store float %63, ptr %19, align 4
  br label %64

64:                                               ; preds = %62, %58
  %65 = load float, ptr %19, align 4
  %66 = load float, ptr %13, align 4
  %67 = fcmp ogt float %65, %66
  br i1 %67, label %68, label %70

68:                                               ; preds = %64
  %69 = load float, ptr %13, align 4
  store float %69, ptr %19, align 4
  br label %70

70:                                               ; preds = %68, %64
  %71 = load float, ptr %20, align 4
  %72 = load float, ptr %19, align 4
  %73 = fsub float %71, %72
  store float %73, ptr %21, align 4
  %74 = load float, ptr %20, align 4
  %75 = load float, ptr %19, align 4
  %76 = fadd float %74, %75
  %77 = fmul float %76, 5.000000e-01
  store float %77, ptr %18, align 4
  %78 = load float, ptr %21, align 4
  %79 = fcmp ogt float %78, 0x3E80000000000000
  br i1 %79, label %80, label %133

80:                                               ; preds = %70
  %81 = load float, ptr %18, align 4
  %82 = fcmp olt float %81, 5.000000e-01
  br i1 %82, label %83, label %89

83:                                               ; preds = %80
  %84 = load float, ptr %21, align 4
  %85 = load float, ptr %20, align 4
  %86 = load float, ptr %19, align 4
  %87 = fadd float %85, %86
  %88 = fdiv float %84, %87
  br label %96

89:                                               ; preds = %80
  %90 = load float, ptr %21, align 4
  %91 = load float, ptr %20, align 4
  %92 = fsub float 2.000000e+00, %91
  %93 = load float, ptr %19, align 4
  %94 = fsub float %92, %93
  %95 = fdiv float %90, %94
  br label %96

96:                                               ; preds = %89, %83
  %97 = phi float [ %88, %83 ], [ %95, %89 ]
  store float %97, ptr %17, align 4
  %98 = load float, ptr %21, align 4
  %99 = fdiv float 6.000000e+01, %98
  store float %99, ptr %21, align 4
  %100 = load float, ptr %20, align 4
  %101 = load float, ptr %15, align 4
  %102 = fcmp oeq float %100, %101
  br i1 %102, label %103, label %109

103:                                              ; preds = %96
  %104 = load float, ptr %14, align 4
  %105 = load float, ptr %13, align 4
  %106 = fsub float %104, %105
  %107 = load float, ptr %21, align 4
  %108 = fmul float %106, %107
  store float %108, ptr %16, align 4
  br label %126

109:                                              ; preds = %96
  %110 = load float, ptr %20, align 4
  %111 = load float, ptr %14, align 4
  %112 = fcmp oeq float %110, %111
  br i1 %112, label %113, label %119

113:                                              ; preds = %109
  %114 = load float, ptr %13, align 4
  %115 = load float, ptr %15, align 4
  %116 = fsub float %114, %115
  %117 = load float, ptr %21, align 4
  %118 = call float @llvm.fmuladd.f32(float %116, float %117, float 1.200000e+02)
  store float %118, ptr %16, align 4
  br label %125

119:                                              ; preds = %109
  %120 = load float, ptr %15, align 4
  %121 = load float, ptr %14, align 4
  %122 = fsub float %120, %121
  %123 = load float, ptr %21, align 4
  %124 = call float @llvm.fmuladd.f32(float %122, float %123, float 2.400000e+02)
  store float %124, ptr %16, align 4
  br label %125

125:                                              ; preds = %119, %113
  br label %126

126:                                              ; preds = %125, %103
  %127 = load float, ptr %16, align 4
  %128 = fcmp olt float %127, 0.000000e+00
  br i1 %128, label %129, label %132

129:                                              ; preds = %126
  %130 = load float, ptr %16, align 4
  %131 = fadd float %130, 3.600000e+02
  store float %131, ptr %16, align 4
  br label %132

132:                                              ; preds = %129, %126
  br label %133

133:                                              ; preds = %132, %70
  %134 = load float, ptr %16, align 4
  %135 = getelementptr inbounds %"struct.cv::hal::cpu_baseline::(anonymous namespace)::RGB2HLS_f", ptr %22, i32 0, i32 2
  %136 = load float, ptr %135, align 4
  %137 = fmul float %134, %136
  %138 = load ptr, ptr %7, align 8
  %139 = getelementptr inbounds float, ptr %138, i64 0
  store float %137, ptr %139, align 4
  %140 = load float, ptr %18, align 4
  %141 = load ptr, ptr %7, align 8
  %142 = getelementptr inbounds float, ptr %141, i64 1
  store float %140, ptr %142, align 4
  %143 = load float, ptr %17, align 4
  %144 = load ptr, ptr %7, align 8
  %145 = getelementptr inbounds float, ptr %144, i64 2
  store float %143, ptr %145, align 4
  br label %146

146:                                              ; preds = %133
  %147 = load i32, ptr %10, align 4
  %148 = add nsw i32 %147, 1
  store i32 %148, ptr %10, align 4
  %149 = load i32, ptr %12, align 4
  %150 = load ptr, ptr %6, align 8
  %151 = sext i32 %149 to i64
  %152 = getelementptr inbounds float, ptr %150, i64 %151
  store ptr %152, ptr %6, align 8
  %153 = load ptr, ptr %7, align 8
  %154 = getelementptr inbounds float, ptr %153, i64 3
  store ptr %154, ptr %7, align 8
  br label %27, !llvm.loop !15

155:                                              ; preds = %27
  call void @_ZN2cv5utils5trace7details6RegionD2Ev(ptr noundef nonnull align 8 dereferenceable(12) %9) #5
  ret void
}

; Function Attrs: mustprogress uwtable
define internal void @_ZNK2cv4impl12_GLOBAL__N_120CvtColorLoop_InvokerINS_3hal12cpu_baseline12_GLOBAL__N_19RGB2HLS_fEEclERKNS_5RangeE(ptr noundef nonnull align 8 dereferenceable(56) %0, ptr noundef nonnull align 4 dereferenceable(8) %1) unnamed_addr #0 align 2 personality ptr @__gxx_personality_v0 {
  %3 = alloca ptr, align 8
  %4 = alloca ptr, align 8
  %5 = alloca %"class.cv::utils::trace::details::Region", align 8
  %6 = alloca ptr, align 8
  %7 = alloca ptr, align 8
  %8 = alloca i32, align 4
  %9 = alloca ptr, align 8
  %10 = alloca i32, align 4
  store ptr %0, ptr %3, align 8
  store ptr %1, ptr %4, align 8
  %11 = load ptr, ptr %3, align 8
  call void @_ZN2cv5utils5trace7details6RegionC1ERKNS3_21LocationStaticStorageE(ptr noundef nonnull align 8 dereferenceable(12) %5, ptr noundef nonnull align 8 dereferenceable(32) @_ZZNK2cv4impl12_GLOBAL__N_120CvtColorLoop_InvokerINS_3hal12cpu_baseline12_GLOBAL__N_19RGB2HLS_fEEclERKNS_5RangeEE25__cv_trace_location_fn146)
  %12 = getelementptr inbounds %"class.cv::impl::(anonymous namespace)::CvtColorLoop_Invoker.3", ptr %11, i32 0, i32 1
  %13 = load ptr, ptr %12, align 8
  %14 = load ptr, ptr %4, align 8
  %15 = getelementptr inbounds %"class.cv::Range", ptr %14, i32 0, i32 0
  %16 = load i32, ptr %15, align 4
  %17 = sext i32 %16 to i64
  %18 = getelementptr inbounds %"class.cv::impl::(anonymous namespace)::CvtColorLoop_Invoker.3", ptr %11, i32 0, i32 2
  %19 = load i64, ptr %18, align 8
  %20 = mul i64 %17, %19
  %21 = getelementptr inbounds i8, ptr %13, i64 %20
  store ptr %21, ptr %6, align 8
  %22 = getelementptr inbounds %"class.cv::impl::(anonymous namespace)::CvtColorLoop_Invoker.3", ptr %11, i32 0, i32 3
  %23 = load ptr, ptr %22, align 8
  %24 = load ptr, ptr %4, align 8
  %25 = getelementptr inbounds %"class.cv::Range", ptr %24, i32 0, i32 0
  %26 = load i32, ptr %25, align 4
  %27 = sext i32 %26 to i64
  %28 = getelementptr inbounds %"class.cv::impl::(anonymous namespace)::CvtColorLoop_Invoker.3", ptr %11, i32 0, i32 4
  %29 = load i64, ptr %28, align 8
  %30 = mul i64 %27, %29
  %31 = getelementptr inbounds i8, ptr %23, i64 %30
  store ptr %31, ptr %7, align 8
  %32 = load ptr, ptr %4, align 8
  %33 = getelementptr inbounds %"class.cv::Range", ptr %32, i32 0, i32 0
  %34 = load i32, ptr %33, align 4
  store i32 %34, ptr %8, align 4
  br label %35

35:                                               ; preds = %49, %2
  %36 = load i32, ptr %8, align 4
  %37 = load ptr, ptr %4, align 8
  %38 = getelementptr inbounds %"class.cv::Range", ptr %37, i32 0, i32 1
  %39 = load i32, ptr %38, align 4
  %40 = icmp slt i32 %36, %39
  br i1 %40, label %41, label %64

41:                                               ; preds = %35
  %42 = getelementptr inbounds %"class.cv::impl::(anonymous namespace)::CvtColorLoop_Invoker.3", ptr %11, i32 0, i32 6
  %43 = load ptr, ptr %42, align 8
  %44 = load ptr, ptr %6, align 8
  %45 = load ptr, ptr %7, align 8
  %46 = getelementptr inbounds %"class.cv::impl::(anonymous namespace)::CvtColorLoop_Invoker.3", ptr %11, i32 0, i32 5
  %47 = load i32, ptr %46, align 8
  invoke void @_ZNK2cv3hal12cpu_baseline12_GLOBAL__N_19RGB2HLS_fclEPKfPfi(ptr noundef nonnull align 4 dereferenceable(12) %43, ptr noundef %44, ptr noundef %45, i32 noundef %47)
          to label %48 unwind label %60

48:                                               ; preds = %41
  br label %49

49:                                               ; preds = %48
  %50 = load i32, ptr %8, align 4
  %51 = add nsw i32 %50, 1
  store i32 %51, ptr %8, align 4
  %52 = getelementptr inbounds %"class.cv::impl::(anonymous namespace)::CvtColorLoop_Invoker.3", ptr %11, i32 0, i32 2
  %53 = load i64, ptr %52, align 8
  %54 = load ptr, ptr %6, align 8
  %55 = getelementptr inbounds i8, ptr %54, i64 %53
  store ptr %55, ptr %6, align 8
  %56 = getelementptr inbounds %"class.cv::impl::(anonymous namespace)::CvtColorLoop_Invoker.3", ptr %11, i32 0, i32 4
  %57 = load i64, ptr %56, align 8
  %58 = load ptr, ptr %7, align 8
  %59 = getelementptr inbounds i8, ptr %58, i64 %57
  store ptr %59, ptr %7, align 8
  br label %35, !llvm.loop !16

60:                                               ; preds = %41
  %61 = landingpad { ptr, i32 }
          cleanup
  %62 = extractvalue { ptr, i32 } %61, 0
  store ptr %62, ptr %9, align 8
  %63 = extractvalue { ptr, i32 } %61, 1
  store i32 %63, ptr %10, align 4
  call void @_ZN2cv5utils5trace7details6RegionD2Ev(ptr noundef nonnull align 8 dereferenceable(12) %5) #5
  br label %65

64:                                               ; preds = %35
  call void @_ZN2cv5utils5trace7details6RegionD2Ev(ptr noundef nonnull align 8 dereferenceable(12) %5) #5
  ret void

65:                                               ; preds = %60
  %66 = load ptr, ptr %9, align 8
  %67 = load i32, ptr %10, align 4
  %68 = insertvalue { ptr, i32 } poison, ptr %66, 0
  %69 = insertvalue { ptr, i32 } %68, i32 %67, 1
  resume { ptr, i32 } %69
}