; Function Attrs: mustprogress uwtable
define internal void @_ZNK2cv4impl12_GLOBAL__N_120CvtColorLoop_InvokerINS_3hal12cpu_baseline12_GLOBAL__N_19RGB2HLS_fEEclERKNS_5RangeE(ptr nocapture noundef nonnull readonly align 8 dereferenceable(56) %0, ptr nocapture noundef nonnull readonly align 4 dereferenceable(8) %1) unnamed_addr #0 align 2 personality ptr @__gxx_personality_v0 {
  %3 = alloca %"class.cv::utils::trace::details::Region", align 8
  %4 = alloca %"class.cv::utils::trace::details::Region", align 8
  call void @_ZN2cv5utils5trace7details6RegionC1ERKNS3_21LocationStaticStorageE(ptr noundef nonnull align 8 dereferenceable(12) %4, ptr noundef nonnull align 8 dereferenceable(32) @_ZZNK2cv4impl12_GLOBAL__N_120CvtColorLoop_InvokerINS_3hal12cpu_baseline12_GLOBAL__N_19RGB2HLS_fEEclERKNS_5RangeEE25__cv_trace_location_fn146)
  %5 = load i32, ptr %1, align 4
  %6 = getelementptr inbounds i8, ptr %0, i64 16
  %7 = getelementptr inbounds i8, ptr %0, i64 32
  %8 = getelementptr inbounds i8, ptr %1, i64 4
  %9 = load i32, ptr %8, align 4
  %10 = icmp slt i32 %5, %9
  br i1 %10, label %.lr.ph, label %._crit_edge

.lr.ph:                                           ; preds = %2
  %11 = getelementptr inbounds i8, ptr %0, i64 24
  %12 = load ptr, ptr %11, align 8
  %13 = load i64, ptr %7, align 8
  %14 = sext i32 %5 to i64
  %15 = mul i64 %13, %14
  %16 = getelementptr inbounds i8, ptr %12, i64 %15
  %17 = getelementptr inbounds i8, ptr %0, i64 8
  %18 = load ptr, ptr %17, align 8
  %19 = load i64, ptr %6, align 8
  %20 = mul i64 %19, %14
  %21 = getelementptr inbounds i8, ptr %18, i64 %20
  %22 = getelementptr inbounds i8, ptr %0, i64 48
  %23 = getelementptr inbounds i8, ptr %0, i64 40
  %24 = getelementptr inbounds i8, ptr %3, i64 8
  br label %25

25:                                               ; preds = %.lr.ph, %87
  %.016 = phi ptr [ %21, %.lr.ph ], [ %90, %87 ]
  %.01215 = phi ptr [ %16, %.lr.ph ], [ %92, %87 ]
  %.01314 = phi i32 [ %5, %.lr.ph ], [ %88, %87 ]
  %26 = load ptr, ptr %22, align 8
  %27 = load i32, ptr %23, align 8
  call void @llvm.lifetime.start.p0(i64 16, ptr nonnull %3)
  invoke void @_ZN2cv5utils5trace7details6RegionC1ERKNS3_21LocationStaticStorageE(ptr noundef nonnull align 8 dereferenceable(12) %3, ptr noundef nonnull align 8 dereferenceable(32) @_ZZNK2cv3hal12cpu_baseline12_GLOBAL__N_19RGB2HLS_fclEPKfPfiE25__cv_trace_location_fn717)
          to label %.noexc unwind label %95

.noexc:                                           ; preds = %25
  %28 = icmp sgt i32 %27, 0
  br i1 %28, label %.lr.ph.i, label %._crit_edge.i

.lr.ph.i:                                         ; preds = %.noexc
  %29 = load i32, ptr %26, align 4
  %30 = getelementptr inbounds i8, ptr %26, i64 4
  %31 = load i32, ptr %30, align 4
  %32 = sext i32 %31 to i64
  %33 = xor i32 %31, 2
  %34 = sext i32 %33 to i64
  %35 = getelementptr inbounds i8, ptr %26, i64 8
  %36 = sext i32 %29 to i64
  br label %37

37:                                               ; preds = %74, %.lr.ph.i
  %.06076.i = phi ptr [ %.016, %.lr.ph.i ], [ %80, %74 ]
  %.06475.i = phi ptr [ %.01215, %.lr.ph.i ], [ %81, %74 ]
  %.06574.i = phi i32 [ 0, %.lr.ph.i ], [ %79, %74 ]
  %38 = getelementptr inbounds float, ptr %.06076.i, i64 %32
  %39 = load float, ptr %38, align 4
  %40 = getelementptr inbounds i8, ptr %.06076.i, i64 4
  %41 = load float, ptr %40, align 4
  %42 = getelementptr inbounds float, ptr %.06076.i, i64 %34
  %43 = load float, ptr %42, align 4
  %44 = fcmp olt float %43, %41
  %.0.i = select i1 %44, float %41, float %43
  %45 = fcmp olt float %.0.i, %39
  %.1.i = select i1 %45, float %39, float %.0.i
  %46 = fcmp ogt float %43, %41
  %.058.i = select i1 %46, float %41, float %43
  %47 = fcmp ogt float %.058.i, %39
  %.159.i = select i1 %47, float %39, float %.058.i
  %48 = fsub float %.1.i, %.159.i
  %49 = fadd float %.1.i, %.159.i
  %50 = fmul float %49, 5.000000e-01
  %51 = fcmp ogt float %48, 0x3E80000000000000
  br i1 %51, label %52, label %74

52:                                               ; preds = %37
  %53 = fcmp olt float %50, 5.000000e-01
  %54 = fsub float 2.000000e+00, %.1.i
  %55 = fsub float %54, %.159.i
  %.pn.i = select i1 %53, float %49, float %55
  %56 = fdiv float %48, %.pn.i
  %57 = fdiv float 6.000000e+01, %48
  %58 = fcmp oeq float %.1.i, %43
  br i1 %58, label %59, label %62

59:                                               ; preds = %52
  %60 = fsub float %41, %39
  %61 = fmul float %60, %57
  br label %70

62:                                               ; preds = %52
  %63 = fcmp oeq float %.1.i, %41
  br i1 %63, label %64, label %67

64:                                               ; preds = %62
  %65 = fsub float %39, %43
  %66 = call float @llvm.fmuladd.f32(float %65, float %57, float 1.200000e+02)
  br label %70

67:                                               ; preds = %62
  %68 = fsub float %43, %41
  %69 = call float @llvm.fmuladd.f32(float %68, float %57, float 2.400000e+02)
  br label %70

70:                                               ; preds = %67, %64, %59
  %.062.i = phi float [ %61, %59 ], [ %66, %64 ], [ %69, %67 ]
  %71 = fcmp olt float %.062.i, 0.000000e+00
  br i1 %71, label %72, label %74

72:                                               ; preds = %70
  %73 = fadd float %.062.i, 3.600000e+02
  br label %74

74:                                               ; preds = %72, %70, %37
  %.163.i = phi float [ %73, %72 ], [ %.062.i, %70 ], [ 0.000000e+00, %37 ]
  %.061.i = phi float [ %56, %72 ], [ %56, %70 ], [ 0.000000e+00, %37 ]
  %75 = load float, ptr %35, align 4
  %76 = fmul float %.163.i, %75
  store float %76, ptr %.06475.i, align 4
  %77 = getelementptr inbounds i8, ptr %.06475.i, i64 4
  store float %50, ptr %77, align 4
  %78 = getelementptr inbounds i8, ptr %.06475.i, i64 8
  store float %.061.i, ptr %78, align 4
  %79 = add nuw nsw i32 %.06574.i, 1
  %80 = getelementptr inbounds float, ptr %.06076.i, i64 %36
  %81 = getelementptr inbounds i8, ptr %.06475.i, i64 12
  %exitcond.not.i = icmp eq i32 %79, %27
  br i1 %exitcond.not.i, label %._crit_edge.i, label %37, !llvm.loop !24

._crit_edge.i:                                    ; preds = %74, %.noexc
  %82 = load i32, ptr %24, align 8
  %.not.i.i = icmp eq i32 %82, 0
  br i1 %.not.i.i, label %87, label %83

83:                                               ; preds = %._crit_edge.i
  invoke void @_ZN2cv5utils5trace7details6Region7destroyEv(ptr noundef nonnull align 8 dereferenceable(12) %3)
          to label %87 unwind label %84

84:                                               ; preds = %83
  %85 = landingpad { ptr, i32 }
          catch ptr null
  %86 = extractvalue { ptr, i32 } %85, 0
  call void @__clang_call_terminate(ptr %86) #15
  unreachable

87:                                               ; preds = %83, %._crit_edge.i
  call void @llvm.lifetime.end.p0(i64 16, ptr nonnull %3)
  %88 = add nsw i32 %.01314, 1
  %89 = load i64, ptr %6, align 8
  %90 = getelementptr inbounds i8, ptr %.016, i64 %89
  %91 = load i64, ptr %7, align 8
  %92 = getelementptr inbounds i8, ptr %.01215, i64 %91
  %93 = load i32, ptr %8, align 4
  %94 = icmp slt i32 %88, %93
  br i1 %94, label %25, label %._crit_edge, !llvm.loop !28

95:                                               ; preds = %25
  %96 = landingpad { ptr, i32 }
          cleanup
  call void @_ZN2cv5utils5trace7details6RegionD2Ev(ptr noundef nonnull align 8 dereferenceable(12) %4) #14
  resume { ptr, i32 } %96

._crit_edge:                                      ; preds = %87, %2
  %97 = getelementptr inbounds i8, ptr %4, i64 8
  %98 = load i32, ptr %97, align 8
  %.not.i = icmp eq i32 %98, 0
  br i1 %.not.i, label %_ZN2cv5utils5trace7details6RegionD2Ev.exit, label %99

99:                                               ; preds = %._crit_edge
  invoke void @_ZN2cv5utils5trace7details6Region7destroyEv(ptr noundef nonnull align 8 dereferenceable(12) %4)
          to label %_ZN2cv5utils5trace7details6RegionD2Ev.exit unwind label %100

100:                                              ; preds = %99
  %101 = landingpad { ptr, i32 }
          catch ptr null
  %102 = extractvalue { ptr, i32 } %101, 0
  call void @__clang_call_terminate(ptr %102) #15
  unreachable

_ZN2cv5utils5trace7details6RegionD2Ev.exit:       ; preds = %._crit_edge, %99
  ret void
}